target datalayout = "e-m:e-p270:32:32-p271:32:32-p272:64:64-i64:64-i128:128-f80:128-n8:16:32:64-S128"
target triple = "x86_64-pc-linux-gnu"

%"class.llvm::SmallVectorBase" = type { ptr, i32, i32 }
%"class.llvm::SmallPtrSetImplBase.base" = type <{ ptr, ptr, i32, i32, i32 }>
%"struct.llvm::AnalysisKey" = type { [8 x i8] }
%"class.llvm::BasicAAResult" = type { ptr, ptr, ptr, ptr, ptr, %"class.llvm::SmallPtrSet.10" }
%"class.llvm::SmallPtrSet.10" = type { %"class.llvm::SmallPtrSetImpl.base.12", [16 x ptr] }
%"class.llvm::SmallPtrSetImpl.base.12" = type { %"class.llvm::SmallPtrSetImplBase.base" }
%"class.llvm::SmallVectorImpl.20" = type { %"class.llvm::SmallVectorTemplateBase.21" }
%"class.llvm::SmallVectorTemplateBase.21" = type { %"class.llvm::SmallVectorTemplateCommon.22" }
%"class.llvm::SmallVectorTemplateCommon.22" = type { %"class.llvm::SmallVectorBase" }
%"class.llvm::SmallPtrSetImplBase" = type <{ ptr, ptr, i32, i32, i32, [4 x i8] }>
%"class.llvm::AssumptionCache" = type <{ ptr, ptr, %"class.llvm::SmallVector.122", %"class.llvm::DenseMap.127", i8, [7 x i8] }>
%"class.llvm::SmallVector.122" = type { %"class.llvm::SmallVectorImpl.123", %"struct.llvm::SmallVectorStorage.126" }
%"class.llvm::SmallVectorImpl.123" = type { %"class.llvm::SmallVectorTemplateBase.124" }
%"class.llvm::SmallVectorTemplateBase.124" = type { %"class.llvm::SmallVectorTemplateCommon.125" }
%"class.llvm::SmallVectorTemplateCommon.125" = type { %"class.llvm::SmallVectorBase" }
%"struct.llvm::SmallVectorStorage.126" = type { [128 x i8] }
%"class.llvm::DenseMap.127" = type <{ ptr, i32, i32, i32, [4 x i8] }>
%"struct.llvm::detail::AnalysisResultModel.358" = type { %"struct.llvm::detail::AnalysisResultConcept", %"class.llvm::TargetLibraryInfo" }
%"struct.llvm::detail::AnalysisResultConcept" = type { ptr }
%"class.llvm::TargetLibraryInfo" = type { ptr, %"class.std::bitset" }
%"class.std::bitset" = type { %"struct.std::_Base_bitset" }
%"struct.std::_Base_bitset" = type { [8 x i64] }
%"struct.llvm::detail::AnalysisResultModel" = type { %"struct.llvm::detail::AnalysisResultConcept", %"class.llvm::AssumptionCache" }
%"struct.llvm::detail::AnalysisResultModel.352" = type { %"struct.llvm::detail::AnalysisResultConcept", %"class.llvm::DominatorTree" }
%"class.llvm::DominatorTree" = type { %"class.llvm::DominatorTreeBase.base", [4 x i8] }
%"class.llvm::DominatorTreeBase.base" = type <{ %"class.llvm::SmallVector.19", %"class.llvm::SmallVector.24", [8 x i8], ptr, ptr, i8, [3 x i8], i32, i32 }>
%"class.llvm::SmallVector.19" = type { %"class.llvm::SmallVectorImpl.20", %"struct.llvm::SmallVectorStorage.23" }
%"struct.llvm::SmallVectorStorage.23" = type { [8 x i8] }
%"class.llvm::SmallVector.24" = type { %"class.llvm::SmallVectorImpl.25", %"struct.llvm::SmallVectorStorage.28" }
%"class.llvm::SmallVectorImpl.25" = type { %"class.llvm::SmallVectorTemplateBase.26" }
%"class.llvm::SmallVectorTemplateBase.26" = type { %"class.llvm::SmallVectorTemplateCommon.27" }
%"class.llvm::SmallVectorTemplateCommon.27" = type { %"class.llvm::SmallVectorBase" }
%"struct.llvm::SmallVectorStorage.28" = type { [48 x i8] }

@_ZN4llvm18AssumptionAnalysis3KeyE = external global %"struct.llvm::AnalysisKey", align 8
@_ZN4llvm21DominatorTreeAnalysis3KeyE = external global %"struct.llvm::AnalysisKey", align 8
@_ZN4llvm21TargetLibraryAnalysis3KeyE = external global %"struct.llvm::AnalysisKey", align 8

; Function Attrs: mustprogress nounwind uwtable
define linkonce_odr hidden void @_ZN4llvm19SmallPtrSetImplBaseC2EPPKvj(ptr noundef nonnull align 8 dereferenceable(28) %0, ptr noundef %1, i32 noundef %2) unnamed_addr #1 comdat align 2 {
  %4 = alloca ptr, align 8
  %5 = alloca ptr, align 8
  %6 = alloca i32, align 4
  store ptr %0, ptr %4, align 8
  store ptr %1, ptr %5, align 8
  store i32 %2, ptr %6, align 4
  %7 = load ptr, ptr %4, align 8
  %8 = getelementptr inbounds nuw %"class.llvm::SmallPtrSetImplBase", ptr %7, i32 0, i32 0
  %9 = load ptr, ptr %5, align 8
  store ptr %9, ptr %8, align 8
  %10 = getelementptr inbounds nuw %"class.llvm::SmallPtrSetImplBase", ptr %7, i32 0, i32 1
  %11 = load ptr, ptr %5, align 8
  store ptr %11, ptr %10, align 8
  %12 = getelementptr inbounds nuw %"class.llvm::SmallPtrSetImplBase", ptr %7, i32 0, i32 2
  %13 = load i32, ptr %6, align 4
  store i32 %13, ptr %12, align 8
  %14 = getelementptr inbounds nuw %"class.llvm::SmallPtrSetImplBase", ptr %7, i32 0, i32 3
  store i32 0, ptr %14, align 4
  %15 = getelementptr inbounds nuw %"class.llvm::SmallPtrSetImplBase", ptr %7, i32 0, i32 4
  store i32 0, ptr %15, align 8
  ret void
}

; Function Attrs: mustprogress nounwind uwtable
define linkonce_odr hidden void @_ZN4llvm15SmallPtrSetImplIPKNS_5ValueEECI2NS_19SmallPtrSetImplBaseEEPPKvj(ptr noundef nonnull align 8 dereferenceable(28) %0, ptr noundef %1, i32 noundef %2) unnamed_addr #1 comdat align 2 {
  %4 = alloca ptr, align 8
  %5 = alloca ptr, align 8
  %6 = alloca i32, align 4
  store ptr %0, ptr %4, align 8
  store ptr %1, ptr %5, align 8
  store i32 %2, ptr %6, align 4
  %7 = load ptr, ptr %4, align 8
  %8 = load ptr, ptr %5, align 8
  %9 = load i32, ptr %6, align 4
  call void @_ZN4llvm19SmallPtrSetImplBaseC2EPPKvj(ptr noundef nonnull align 8 dereferenceable(28) %7, ptr noundef %8, i32 noundef %9)
  ret void
}

; Function Attrs: mustprogress nounwind uwtable
define linkonce_odr hidden void @_ZN4llvm11SmallPtrSetIPKNS_5ValueELj16EEC2Ev(ptr noundef nonnull align 8 dereferenceable(160) %0) unnamed_addr #1 comdat align 2 {
  %2 = alloca ptr, align 8
  store ptr %0, ptr %2, align 8
  %3 = load ptr, ptr %2, align 8
  %4 = getelementptr inbounds nuw %"class.llvm::SmallPtrSet.10", ptr %3, i32 0, i32 1
  %5 = getelementptr inbounds [16 x ptr], ptr %4, i64 0, i64 0
  call void @_ZN4llvm15SmallPtrSetImplIPKNS_5ValueEECI2NS_19SmallPtrSetImplBaseEEPPKvj(ptr noundef nonnull align 8 dereferenceable(28) %3, ptr noundef %5, i32 noundef 16)
  ret void
}

; Function Attrs: mustprogress nounwind uwtable
define linkonce_odr hidden noundef ptr @_ZN4llvm17AnalysisInfoMixinINS_21DominatorTreeAnalysisEE2IDEv() #1 comdat align 2 {
  ret ptr @_ZN4llvm21DominatorTreeAnalysis3KeyE
}

; Function Attrs: mustprogress nounwind uwtable
define linkonce_odr hidden noundef ptr @_ZN4llvm17AnalysisInfoMixinINS_18AssumptionAnalysisEE2IDEv() #1 comdat align 2 {
  ret ptr @_ZN4llvm18AssumptionAnalysis3KeyE
}

; Function Attrs: mustprogress nounwind uwtable
define linkonce_odr hidden noundef ptr @_ZN4llvm17AnalysisInfoMixinINS_21TargetLibraryAnalysisEE2IDEv() #1 comdat align 2 {
  ret ptr @_ZN4llvm21TargetLibraryAnalysis3KeyE
}

; Function Attrs: mustprogress nounwind uwtable
define linkonce_odr hidden void @_ZN4llvm13BasicAAResultC2ERKNS_10DataLayoutERKNS_8FunctionERKNS_17TargetLibraryInfoERNS_15AssumptionCacheEPNS_13DominatorTreeE(ptr noundef nonnull align 8 dereferenceable(200) %0, ptr noundef nonnull align 8 dereferenceable(512) %1, ptr noundef nonnull align 8 dereferenceable(136) %2, ptr noundef nonnull align 8 dereferenceable(72) %3, ptr noundef nonnull align 8 dereferenceable(185) %4, ptr noundef %5) unnamed_addr #1 comdat align 2 {
  %7 = alloca ptr, align 8
  %8 = alloca ptr, align 8
  %9 = alloca ptr, align 8
  %10 = alloca ptr, align 8
  %11 = alloca ptr, align 8
  %12 = alloca ptr, align 8
  store ptr %0, ptr %7, align 8
  store ptr %1, ptr %8, align 8
  store ptr %2, ptr %9, align 8
  store ptr %3, ptr %10, align 8
  store ptr %4, ptr %11, align 8
  store ptr %5, ptr %12, align 8
  %13 = load ptr, ptr %7, align 8
  %14 = getelementptr inbounds nuw %"class.llvm::BasicAAResult", ptr %13, i32 0, i32 0
  %15 = load ptr, ptr %8, align 8
  store ptr %15, ptr %14, align 8
  %16 = getelementptr inbounds nuw %"class.llvm::BasicAAResult", ptr %13, i32 0, i32 1
  %17 = load ptr, ptr %9, align 8
  store ptr %17, ptr %16, align 8
  %18 = getelementptr inbounds nuw %"class.llvm::BasicAAResult", ptr %13, i32 0, i32 2
  %19 = load ptr, ptr %10, align 8
  store ptr %19, ptr %18, align 8
  %20 = getelementptr inbounds nuw %"class.llvm::BasicAAResult", ptr %13, i32 0, i32 3
  %21 = load ptr, ptr %11, align 8
  store ptr %21, ptr %20, align 8
  %22 = getelementptr inbounds nuw %"class.llvm::BasicAAResult", ptr %13, i32 0, i32 4
  %23 = load ptr, ptr %12, align 8
  store ptr %23, ptr %22, align 8
  %24 = getelementptr inbounds nuw %"class.llvm::BasicAAResult", ptr %13, i32 0, i32 5
  call void @_ZN4llvm11SmallPtrSetIPKNS_5ValueELj16EEC2Ev(ptr noundef nonnull align 8 dereferenceable(160) %24)
  ret void
}

; Function Attrs: mustprogress nounwind uwtable
define linkonce_odr hidden noundef nonnull align 8 dereferenceable(124) ptr @_ZN4llvm15AnalysisManagerINS_8FunctionEJEE9getResultINS_21DominatorTreeAnalysisEEERNT_6ResultERS1_(ptr noundef nonnull align 8 dereferenceable(72) %0, ptr noundef nonnull align 8 dereferenceable(136) %1) #1 comdat align 2 {
  %3 = alloca ptr, align 8
  %4 = alloca ptr, align 8
  %5 = alloca ptr, align 8
  store ptr %0, ptr %3, align 8
  store ptr %1, ptr %4, align 8
  %6 = load ptr, ptr %3, align 8
  %7 = call noundef ptr @_ZN4llvm17AnalysisInfoMixinINS_21DominatorTreeAnalysisEE2IDEv()
  %8 = load ptr, ptr %4, align 8
  %9 = call noundef nonnull align 8 dereferenceable(8) ptr @_ZN4llvm15AnalysisManagerINS_8FunctionEJEE13getResultImplEPNS_11AnalysisKeyERS1_(ptr noundef nonnull align 8 dereferenceable(72) %6, ptr noundef %7, ptr noundef nonnull align 8 dereferenceable(136) %8)
  store ptr %9, ptr %5, align 8
  %10 = load ptr, ptr %5, align 8
  %11 = getelementptr inbounds nuw %"struct.llvm::detail::AnalysisResultModel.352", ptr %10, i32 0, i32 1
  ret ptr %11
}

; Function Attrs: mustprogress nounwind uwtable
define linkonce_odr hidden noundef nonnull align 8 dereferenceable(185) ptr @_ZN4llvm15AnalysisManagerINS_8FunctionEJEE9getResultINS_18AssumptionAnalysisEEERNT_6ResultERS1_(ptr noundef nonnull align 8 dereferenceable(72) %0, ptr noundef nonnull align 8 dereferenceable(136) %1) #1 comdat align 2 {
  %3 = alloca ptr, align 8
  %4 = alloca ptr, align 8
  %5 = alloca ptr, align 8
  store ptr %0, ptr %3, align 8
  store ptr %1, ptr %4, align 8
  %6 = load ptr, ptr %3, align 8
  %7 = call noundef ptr @_ZN4llvm17AnalysisInfoMixinINS_18AssumptionAnalysisEE2IDEv()
  %8 = load ptr, ptr %4, align 8
  %9 = call noundef nonnull align 8 dereferenceable(8) ptr @_ZN4llvm15AnalysisManagerINS_8FunctionEJEE13getResultImplEPNS_11AnalysisKeyERS1_(ptr noundef nonnull align 8 dereferenceable(72) %6, ptr noundef %7, ptr noundef nonnull align 8 dereferenceable(136) %8)
  store ptr %9, ptr %5, align 8
  %10 = load ptr, ptr %5, align 8
  %11 = getelementptr inbounds nuw %"struct.llvm::detail::AnalysisResultModel", ptr %10, i32 0, i32 1
  ret ptr %11
}

; Function Attrs: mustprogress nounwind uwtable
define linkonce_odr hidden noundef nonnull align 8 dereferenceable(72) ptr @_ZN4llvm15AnalysisManagerINS_8FunctionEJEE9getResultINS_21TargetLibraryAnalysisEEERNT_6ResultERS1_(ptr noundef nonnull align 8 dereferenceable(72) %0, ptr noundef nonnull align 8 dereferenceable(136) %1) #1 comdat align 2 {
  %3 = alloca ptr, align 8
  %4 = alloca ptr, align 8
  %5 = alloca ptr, align 8
  store ptr %0, ptr %3, align 8
  store ptr %1, ptr %4, align 8
  %6 = load ptr, ptr %3, align 8
  %7 = call noundef ptr @_ZN4llvm17AnalysisInfoMixinINS_21TargetLibraryAnalysisEE2IDEv()
  %8 = load ptr, ptr %4, align 8
  %9 = call noundef nonnull align 8 dereferenceable(8) ptr @_ZN4llvm15AnalysisManagerINS_8FunctionEJEE13getResultImplEPNS_11AnalysisKeyERS1_(ptr noundef nonnull align 8 dereferenceable(72) %6, ptr noundef %7, ptr noundef nonnull align 8 dereferenceable(136) %8)
  store ptr %9, ptr %5, align 8
  %10 = load ptr, ptr %5, align 8
  %11 = getelementptr inbounds nuw %"struct.llvm::detail::AnalysisResultModel.358", ptr %10, i32 0, i32 1
  ret ptr %11
}

; Function Attrs: mustprogress nounwind uwtable
define dso_local void @_ZN4llvm7BasicAA3runERNS_8FunctionERNS_15AnalysisManagerIS1_JEEE(ptr dead_on_unwind noalias writable sret(%"class.llvm::BasicAAResult") align 8 %0, ptr noundef nonnull align 1 dereferenceable(1) %1, ptr noundef nonnull align 8 dereferenceable(136) %2, ptr noundef nonnull align 8 dereferenceable(72) %3) #1 align 2 {
  %5 = alloca ptr, align 8
  %6 = alloca ptr, align 8
  %7 = alloca ptr, align 8
  %8 = alloca ptr, align 8
  %9 = alloca ptr, align 8
  %10 = alloca ptr, align 8
  %11 = alloca ptr, align 8
  store ptr %0, ptr %5, align 8
  store ptr %1, ptr %6, align 8
  store ptr %2, ptr %7, align 8
  store ptr %3, ptr %8, align 8
  %12 = load ptr, ptr %8, align 8
  %13 = load ptr, ptr %7, align 8
  %14 = call noundef nonnull align 8 dereferenceable(72) ptr @_ZN4llvm15AnalysisManagerINS_8FunctionEJEE9getResultINS_21TargetLibraryAnalysisEEERNT_6ResultERS1_(ptr noundef nonnull align 8 dereferenceable(72) %12, ptr noundef nonnull align 8 dereferenceable(136) %13)
  store ptr %14, ptr %9, align 8
  %15 = load ptr, ptr %8, align 8
  %16 = load ptr, ptr %7, align 8
  %17 = call noundef nonnull align 8 dereferenceable(185) ptr @_ZN4llvm15AnalysisManagerINS_8FunctionEJEE9getResultINS_18AssumptionAnalysisEEERNT_6ResultERS1_(ptr noundef nonnull align 8 dereferenceable(72) %15, ptr noundef nonnull align 8 dereferenceable(136) %16)
  store ptr %17, ptr %10, align 8
  %18 = load ptr, ptr %8, align 8
  %19 = load ptr, ptr %7, align 8
  %20 = call noundef nonnull align 8 dereferenceable(124) ptr @_ZN4llvm15AnalysisManagerINS_8FunctionEJEE9getResultINS_21DominatorTreeAnalysisEEERNT_6ResultERS1_(ptr noundef nonnull align 8 dereferenceable(72) %18, ptr noundef nonnull align 8 dereferenceable(136) %19)
  store ptr %20, ptr %11, align 8
  %21 = load ptr, ptr %7, align 8
  %22 = call noundef nonnull align 8 dereferenceable(512) ptr @_ZNK4llvm8Function13getDataLayoutEv(ptr noundef nonnull align 8 dereferenceable(136) %21)
  %23 = load ptr, ptr %7, align 8
  %24 = load ptr, ptr %9, align 8
  %25 = load ptr, ptr %10, align 8
  %26 = load ptr, ptr %11, align 8
  call void @_ZN4llvm13BasicAAResultC2ERKNS_10DataLayoutERKNS_8FunctionERKNS_17TargetLibraryInfoERNS_15AssumptionCacheEPNS_13DominatorTreeE(ptr noundef nonnull align 8 dereferenceable(200) %0, ptr noundef nonnull align 8 dereferenceable(512) %22, ptr noundef nonnull align 8 dereferenceable(136) %23, ptr noundef nonnull align 8 dereferenceable(72) %24, ptr noundef nonnull align 8 dereferenceable(185) %25, ptr noundef %26)
  ret void
}