; Function Attrs: mustprogress nounwind uwtable
define dso_local void @_ZN4llvm7BasicAA3runERNS_8FunctionERNS_15AnalysisManagerIS1_JEEE(ptr dead_on_unwind noalias writable sret(%"class.llvm::BasicAAResult") align 8 %0, ptr nocapture noundef nonnull readnone align 1 dereferenceable(1) %1, ptr noundef nonnull align 8 dereferenceable(136) %2, ptr noundef nonnull align 8 dereferenceable(72) %3) local_unnamed_addr #0 align 2 {
  %5 = tail call noundef nonnull align 8 dereferenceable(8) ptr @_ZN4llvm15AnalysisManagerINS_8FunctionEJEE13getResultImplEPNS_11AnalysisKeyERS1_(ptr noundef nonnull align 8 dereferenceable(72) %3, ptr noundef nonnull @_ZN4llvm21TargetLibraryAnalysis3KeyE, ptr noundef nonnull align 8 dereferenceable(136) %2) #22
  %6 = getelementptr inbounds nuw i8, ptr %5, i64 8
  %7 = tail call noundef nonnull align 8 dereferenceable(8) ptr @_ZN4llvm15AnalysisManagerINS_8FunctionEJEE13getResultImplEPNS_11AnalysisKeyERS1_(ptr noundef nonnull align 8 dereferenceable(72) %3, ptr noundef nonnull @_ZN4llvm18AssumptionAnalysis3KeyE, ptr noundef nonnull align 8 dereferenceable(136) %2) #22
  %8 = getelementptr inbounds nuw i8, ptr %7, i64 8
  %9 = tail call noundef nonnull align 8 dereferenceable(8) ptr @_ZN4llvm15AnalysisManagerINS_8FunctionEJEE13getResultImplEPNS_11AnalysisKeyERS1_(ptr noundef nonnull align 8 dereferenceable(72) %3, ptr noundef nonnull @_ZN4llvm21DominatorTreeAnalysis3KeyE, ptr noundef nonnull align 8 dereferenceable(136) %2) #22
  %10 = getelementptr inbounds nuw i8, ptr %9, i64 8
  %11 = tail call noundef nonnull align 8 dereferenceable(512) ptr @_ZNK4llvm8Function13getDataLayoutEv(ptr noundef nonnull align 8 dereferenceable(136) %2) #22
  store ptr %11, ptr %0, align 8
  %12 = getelementptr inbounds nuw i8, ptr %0, i64 8
  store ptr %2, ptr %12, align 8
  %13 = getelementptr inbounds nuw i8, ptr %0, i64 16
  store ptr %6, ptr %13, align 8
  %14 = getelementptr inbounds nuw i8, ptr %0, i64 24
  store ptr %8, ptr %14, align 8
  %15 = getelementptr inbounds nuw i8, ptr %0, i64 32
  store ptr %10, ptr %15, align 8
  %16 = getelementptr inbounds nuw i8, ptr %0, i64 40
  %17 = getelementptr inbounds i8, ptr %0, i64 72
  store ptr %17, ptr %16, align 8
  %18 = getelementptr inbounds i8, ptr %0, i64 48
  store ptr %17, ptr %18, align 8
  %19 = getelementptr inbounds i8, ptr %0, i64 56
  store i32 16, ptr %19, align 8
  %20 = getelementptr inbounds i8, ptr %0, i64 60
  store i32 0, ptr %20, align 4
  %21 = getelementptr inbounds i8, ptr %0, i64 64
  store i32 0, ptr %21, align 8
  ret void
}